target datalayout = "e-m:e-p270:32:32-p271:32:32-p272:64:64-i64:64-i128:128-f80:128-n8:16:32:64-S128"
target triple = "x86_64-pc-linux-gnu"

@.str.25 = private unnamed_addr constant [6 x i8] c"throw\00", align 1
@PyExc_DeprecationWarning = external global ptr, align 8
@.str.31 = private unnamed_addr constant [94 x i8] c"the (type, exc, tb) signature of throw() is deprecated, use the single-arg signature instead.\00", align 1

; Function Attrs: nounwind uwtable
define internal ptr @gen_throw(ptr noundef %0, ptr noundef %1, i64 noundef %2) #0 {
  %4 = alloca ptr, align 8
  %5 = alloca ptr, align 8
  %6 = alloca ptr, align 8
  %7 = alloca i64, align 8
  %8 = alloca ptr, align 8
  %9 = alloca ptr, align 8
  %10 = alloca ptr, align 8
  %11 = alloca i32, align 4
  store ptr %0, ptr %5, align 8, !tbaa !4
  store ptr %1, ptr %6, align 8, !tbaa !43
  store i64 %2, ptr %7, align 8, !tbaa !187
  call void @llvm.lifetime.start.p0(i64 8, ptr %8) #7
  call void @llvm.lifetime.start.p0(i64 8, ptr %9) #7
  store ptr null, ptr %9, align 8, !tbaa !11
  call void @llvm.lifetime.start.p0(i64 8, ptr %10) #7
  store ptr null, ptr %10, align 8, !tbaa !11
  %12 = load i64, ptr %7, align 8, !tbaa !187
  %13 = icmp sle i64 1, %12
  br i1 %13, label %14, label %17

14:                                               ; preds = %3
  %15 = load i64, ptr %7, align 8, !tbaa !187
  %16 = icmp sle i64 %15, 3
  br i1 %16, label %22, label %17

17:                                               ; preds = %14, %3
  %18 = load i64, ptr %7, align 8, !tbaa !187
  %19 = call i32 @_PyArg_CheckPositional(ptr noundef @.str.25, i64 noundef %18, i64 noundef 1, i64 noundef 3)
  %20 = icmp ne i32 %19, 0
  br i1 %20, label %22, label %21

21:                                               ; preds = %17
  store ptr null, ptr %4, align 8
  store i32 1, ptr %11, align 4
  br label %58

22:                                               ; preds = %17, %14
  %23 = load i64, ptr %7, align 8, !tbaa !187
  %24 = icmp sgt i64 %23, 1
  br i1 %24, label %25, label %31

25:                                               ; preds = %22
  %26 = load ptr, ptr @PyExc_DeprecationWarning, align 8, !tbaa !11
  %27 = call i32 @PyErr_WarnEx(ptr noundef %26, ptr noundef @.str.31, i64 noundef 1)
  %28 = icmp slt i32 %27, 0
  br i1 %28, label %29, label %30

29:                                               ; preds = %25
  store ptr null, ptr %4, align 8
  store i32 1, ptr %11, align 4
  br label %58

30:                                               ; preds = %25
  br label %31

31:                                               ; preds = %30, %22
  %32 = load ptr, ptr %6, align 8, !tbaa !43
  %33 = getelementptr ptr, ptr %32, i64 0
  %34 = load ptr, ptr %33, align 8, !tbaa !11
  store ptr %34, ptr %8, align 8, !tbaa !11
  %35 = load i64, ptr %7, align 8, !tbaa !187
  %36 = icmp eq i64 %35, 3
  br i1 %36, label %37, label %44

37:                                               ; preds = %31
  %38 = load ptr, ptr %6, align 8, !tbaa !43
  %39 = getelementptr ptr, ptr %38, i64 1
  %40 = load ptr, ptr %39, align 8, !tbaa !11
  store ptr %40, ptr %10, align 8, !tbaa !11
  %41 = load ptr, ptr %6, align 8, !tbaa !43
  %42 = getelementptr ptr, ptr %41, i64 2
  %43 = load ptr, ptr %42, align 8, !tbaa !11
  store ptr %43, ptr %9, align 8, !tbaa !11
  br label %52

44:                                               ; preds = %31
  %45 = load i64, ptr %7, align 8, !tbaa !187
  %46 = icmp eq i64 %45, 2
  br i1 %46, label %47, label %51

47:                                               ; preds = %44
  %48 = load ptr, ptr %6, align 8, !tbaa !43
  %49 = getelementptr ptr, ptr %48, i64 1
  %50 = load ptr, ptr %49, align 8, !tbaa !11
  store ptr %50, ptr %10, align 8, !tbaa !11
  br label %51

51:                                               ; preds = %47, %44
  br label %52

52:                                               ; preds = %51, %37
  %53 = load ptr, ptr %5, align 8, !tbaa !4
  %54 = load ptr, ptr %8, align 8, !tbaa !11
  %55 = load ptr, ptr %10, align 8, !tbaa !11
  %56 = load ptr, ptr %9, align 8, !tbaa !11
  %57 = call ptr @_gen_throw(ptr noundef %53, i32 noundef 1, ptr noundef %54, ptr noundef %55, ptr noundef %56)
  store ptr %57, ptr %4, align 8
  store i32 1, ptr %11, align 4
  br label %58

58:                                               ; preds = %52, %29, %21
  call void @llvm.lifetime.end.p0(i64 8, ptr %10) #7
  call void @llvm.lifetime.end.p0(i64 8, ptr %9) #7
  call void @llvm.lifetime.end.p0(i64 8, ptr %8) #7
  %59 = load ptr, ptr %4, align 8
  ret ptr %59
}