; Function Attrs: nounwind uwtable
define internal ptr @gen_throw(ptr noundef %0, ptr noundef readonly captures(none) %1, i64 noundef %2) #2 {
  %4 = add i64 %2, -1
  %or.cond = icmp ult i64 %4, 3
  br i1 %or.cond, label %7, label %5

5:                                                ; preds = %3
  %6 = tail call i32 @_PyArg_CheckPositional(ptr noundef nonnull @.str.25, i64 noundef %2, i64 noundef 1, i64 noundef 3) #8
  %.not = icmp eq i32 %6, 0
  br i1 %.not, label %25, label %7

7:                                                ; preds = %3, %5
  %8 = icmp sgt i64 %2, 1
  br i1 %8, label %9, label %13

9:                                                ; preds = %7
  %10 = load ptr, ptr @PyExc_DeprecationWarning, align 8, !tbaa !32
  %11 = tail call i32 @PyErr_WarnEx(ptr noundef %10, ptr noundef nonnull @.str.31, i64 noundef 1) #8
  %12 = icmp slt i32 %11, 0
  br i1 %12, label %25, label %13

13:                                               ; preds = %9, %7
  %14 = load ptr, ptr %1, align 8, !tbaa !32
  switch i64 %2, label %23 [
    i64 3, label %15
    i64 2, label %20
  ]

15:                                               ; preds = %13
  %16 = getelementptr i8, ptr %1, i64 8
  %17 = load ptr, ptr %16, align 8, !tbaa !32
  %18 = getelementptr i8, ptr %1, i64 16
  %19 = load ptr, ptr %18, align 8, !tbaa !32
  br label %23

20:                                               ; preds = %13
  %21 = getelementptr i8, ptr %1, i64 8
  %22 = load ptr, ptr %21, align 8, !tbaa !32
  br label %23

23:                                               ; preds = %13, %20, %15
  %.015 = phi ptr [ %19, %15 ], [ null, %20 ], [ null, %13 ]
  %.0 = phi ptr [ %17, %15 ], [ %22, %20 ], [ null, %13 ]
  %24 = tail call fastcc ptr @_gen_throw(ptr noundef %0, i32 noundef 1, ptr noundef %14, ptr noundef %.0, ptr noundef %.015)
  br label %25

25:                                               ; preds = %9, %5, %23
  %.016 = phi ptr [ %24, %23 ], [ null, %5 ], [ null, %9 ]
  ret ptr %.016
}